	.file	"is_ascii.c"
	.text
.Ltext0:
	.p2align 4,,15
	.globl	is_ascii_faster
	.type	is_ascii_faster, @function
is_ascii_faster:
.LVL0:
.LFB5179:
	.file 1 "is_ascii.c"
	.loc 1 12 48 view -0
	.cfi_startproc
	.loc 1 13 5 view .LVU1
	.loc 1 14 5 view .LVU2
	.loc 1 14 27 is_stmt 0 view .LVU3
	movslq	%esi, %rdx
	.loc 1 14 17 view .LVU4
	addq	%rdi, %rdx
.LVL1:
	.loc 1 17 5 is_stmt 1 view .LVU5
	.loc 1 17 11 is_stmt 0 view .LVU6
	cmpl	$31, %esi
	jle	.L2
.LBB28:
	.loc 1 18 9 is_stmt 1 view .LVU7
.LVL2:
.LBB29:
.LBI29:
	.file 2 "/usr/lib/gcc/x86_64-linux-gnu/8/include/avxintrin.h"
	.loc 2 919 1 view .LVU8
.LBB30:
	.loc 2 921 3 view .LVU9
	.loc 2 921 3 is_stmt 0 view .LVU10
.LBE30:
.LBE29:
	.loc 1 19 9 is_stmt 1 view .LVU11
.LBB34:
.LBI34:
	.file 3 "/usr/lib/gcc/x86_64-linux-gnu/8/include/avx2intrin.h"
	.loc 3 433 1 view .LVU12
.LBB35:
	.loc 3 435 3 view .LVU13
.LBE35:
.LBE34:
.LBB39:
.LBB31:
	.loc 2 921 10 is_stmt 0 view .LVU14
	vmovdqu	(%rdi), %xmm2
	vinserti128	$0x1, 16(%rdi), %ymm2, %ymm0
.LBE31:
.LBE39:
.LBB40:
.LBB36:
	.loc 3 435 10 view .LVU15
	vpmovmskb	%ymm0, %eax
.LVL3:
	.loc 3 435 10 view .LVU16
.LBE36:
.LBE40:
	.loc 1 20 9 is_stmt 1 view .LVU17
	.loc 1 20 12 is_stmt 0 view .LVU18
	testl	%eax, %eax
	je	.L4
	jmp	.L9
.LVL4:
	.p2align 4,,10
	.p2align 3
.L5:
	.loc 1 18 9 is_stmt 1 view .LVU19
.LBB41:
	.loc 2 919 1 view .LVU20
.LBB32:
	.loc 2 921 3 view .LVU21
	.loc 2 921 3 is_stmt 0 view .LVU22
.LBE32:
.LBE41:
	.loc 1 19 9 is_stmt 1 view .LVU23
.LBB42:
	.loc 3 433 1 view .LVU24
.LBB37:
	.loc 3 435 3 view .LVU25
.LBE37:
.LBE42:
.LBB43:
.LBB33:
	.loc 2 921 10 is_stmt 0 view .LVU26
	vmovdqu	(%rdi), %xmm1
	vinserti128	$0x1, 16(%rdi), %ymm1, %ymm0
.LBE33:
.LBE43:
.LBB44:
.LBB38:
	.loc 3 435 10 view .LVU27
	vpmovmskb	%ymm0, %eax
.LVL5:
	.loc 3 435 10 view .LVU28
.LBE38:
.LBE44:
	.loc 1 20 9 is_stmt 1 view .LVU29
	.loc 1 20 12 is_stmt 0 view .LVU30
	testl	%eax, %eax
	jne	.L9
.LVL6:
.L4:
	.loc 1 23 9 is_stmt 1 view .LVU31
	.loc 1 23 11 is_stmt 0 view .LVU32
	addq	$32, %rdi
.LVL7:
	.loc 1 23 11 view .LVU33
.LBE28:
	.loc 1 17 16 view .LVU34
	movq	%rdx, %rax
	subq	%rdi, %rax
	.loc 1 17 11 view .LVU35
	cmpq	$31, %rax
	jg	.L5
	vzeroupper
.LVL8:
.L2:
	.loc 1 27 11 view .LVU36
	cmpq	%rdi, %rdx
	ja	.L7
.L10:
	.loc 1 34 12 view .LVU37
	movl	$1, %eax
	ret
	.p2align 4,,10
	.p2align 3
.L16:
	.loc 1 31 9 is_stmt 1 view .LVU38
	.loc 1 31 10 is_stmt 0 view .LVU39
	addq	$1, %rdi
.LVL9:
	.loc 1 27 11 view .LVU40
	cmpq	%rdi, %rdx
	je	.L10
.L7:
	.loc 1 28 9 is_stmt 1 view .LVU41
	.loc 1 28 12 is_stmt 0 view .LVU42
	cmpb	$0, (%rdi)
	jns	.L16
.LBB45:
	.loc 1 21 20 view .LVU43
	xorl	%eax, %eax
.LBE45:
	.loc 1 35 1 view .LVU44
	ret
.LVL10:
	.p2align 4,,10
	.p2align 3
.L9:
.LBB46:
	.loc 1 21 20 view .LVU45
	xorl	%eax, %eax
.LVL11:
	.loc 1 21 20 view .LVU46
	vzeroupper
	ret
.LBE46:
	.cfi_endproc
.LFE5179:
	.size	is_ascii_faster, .-is_ascii_faster
	.p2align 4,,15
	.globl	get_random_string
	.type	get_random_string, @function
get_random_string:
.LVL12:
.LFB5180:
	.loc 1 37 34 is_stmt 1 view -0
	.cfi_startproc
	.loc 1 38 5 view .LVU48
	.loc 1 37 34 is_stmt 0 view .LVU49
	pushq	%r13
	.cfi_def_cfa_offset 16
	.cfi_offset 13, -16
	pushq	%r12
	.cfi_def_cfa_offset 24
	.cfi_offset 12, -24
	pushq	%rbp
	.cfi_def_cfa_offset 32
	.cfi_offset 6, -32
	pushq	%rbx
	.cfi_def_cfa_offset 40
	.cfi_offset 3, -40
	subq	$8, %rsp
	.cfi_def_cfa_offset 48
	.loc 1 38 8 view .LVU50
	testl	%edi, %edi
	jle	.L20
	movslq	%edi, %rbx
	.loc 1 40 5 is_stmt 1 view .LVU51
	.loc 1 40 35 is_stmt 0 view .LVU52
	leal	1(%rbx), %edi
.LVL13:
	.loc 1 40 24 view .LVU53
	movslq	%edi, %rdi
	call	malloc@PLT
.LVL14:
	movq	%rax, %r12
.LVL15:
	.loc 1 41 5 is_stmt 1 view .LVU54
	.loc 1 41 8 is_stmt 0 view .LVU55
	testq	%rax, %rax
	je	.L20
	.loc 1 44 5 is_stmt 1 view .LVU56
	.loc 1 44 25 is_stmt 0 view .LVU57
	xorl	%edi, %edi
	movq	%r12, %r13
	call	time@PLT
.LVL16:
	.loc 1 44 5 view .LVU58
	movl	%eax, %edi
	call	srand@PLT
.LVL17:
	.loc 1 46 5 is_stmt 1 view .LVU59
.LBB47:
	.loc 1 46 10 view .LVU60
	.loc 1 46 10 is_stmt 0 view .LVU61
	leal	-1(%rbx), %eax
	leaq	1(%r12,%rax), %rbp
.LVL18:
	.p2align 4,,10
	.p2align 3
.L21:
	.loc 1 47 9 is_stmt 1 discriminator 3 view .LVU62
	.loc 1 47 25 is_stmt 0 discriminator 3 view .LVU63
	call	rand@PLT
.LVL19:
	addq	$1, %r13
.LVL20:
	.loc 1 47 32 discriminator 3 view .LVU64
	cltd
	shrl	$25, %edx
	addl	%edx, %eax
	andl	$127, %eax
	subl	%edx, %eax
	.loc 1 47 18 discriminator 3 view .LVU65
	movb	%al, -1(%r13)
	.loc 1 46 5 discriminator 3 view .LVU66
	cmpq	%rbp, %r13
	jne	.L21
.LBE47:
	.loc 1 50 5 is_stmt 1 view .LVU67
	.loc 1 50 14 is_stmt 0 view .LVU68
	movb	$0, (%r12,%rbx)
	.loc 1 51 5 is_stmt 1 view .LVU69
	.loc 1 52 1 is_stmt 0 view .LVU70
	addq	$8, %rsp
	.cfi_remember_state
	.cfi_def_cfa_offset 40
	movq	%r12, %rax
	popq	%rbx
	.cfi_def_cfa_offset 32
.LVL21:
	.loc 1 52 1 view .LVU71
	popq	%rbp
	.cfi_def_cfa_offset 24
	popq	%r12
	.cfi_def_cfa_offset 16
.LVL22:
	.loc 1 52 1 view .LVU72
	popq	%r13
	.cfi_def_cfa_offset 8
	ret
.LVL23:
	.p2align 4,,10
	.p2align 3
.L20:
	.cfi_restore_state
	.loc 1 52 1 view .LVU73
	addq	$8, %rsp
	.cfi_def_cfa_offset 40
	.loc 1 38 26 view .LVU74
	xorl	%r12d, %r12d
	.loc 1 52 1 view .LVU75
	popq	%rbx
	.cfi_def_cfa_offset 32
	movq	%r12, %rax
	popq	%rbp
	.cfi_def_cfa_offset 24
	popq	%r12
	.cfi_def_cfa_offset 16
	popq	%r13
	.cfi_def_cfa_offset 8
	ret
	.cfi_endproc
.LFE5180:
	.size	get_random_string, .-get_random_string
	.p2align 4,,15
	.globl	is_ascii
	.type	is_ascii, @function
is_ascii:
.LVL24:
.LFB5181:
	.loc 1 54 40 is_stmt 1 view -0
	.cfi_startproc
	.loc 1 55 5 view .LVU77
	.loc 1 55 10 view .LVU78
	.loc 1 60 5 view .LVU79
	.loc 1 61 1 is_stmt 0 view .LVU80
	movl	$1, %eax
	ret
	.cfi_endproc
.LFE5181:
	.size	is_ascii, .-is_ascii
	.section	.rodata.str1.1,"aMS",@progbits,1
.LC0:
	.string	"spend: %ld us, ret=%d\n"
.LC3:
	.string	"speed: %.1f mb / s\n"
.LC4:
	.string	"faster spend: %ld us, ret=%d\n"
.LC5:
	.string	"faster speed: %.1f mb / s\n"
	.section	.text.startup,"ax",@progbits
	.p2align 4,,15
	.globl	main
	.type	main, @function
main:
.LVL25:
.LFB5182:
	.loc 1 63 33 is_stmt 1 view -0
	.cfi_startproc
	.loc 1 64 5 view .LVU82
	.loc 1 65 5 view .LVU83
	.loc 1 63 33 is_stmt 0 view .LVU84
	leaq	8(%rsp), %r10
	.cfi_def_cfa 10, 0
	andq	$-32, %rsp
	pushq	-8(%r10)
	pushq	%rbp
	.cfi_escape 0x10,0x6,0x2,0x76,0
	movq	%rsp, %rbp
	pushq	%r15
	pushq	%r14
	pushq	%r13
	pushq	%r12
	pushq	%r10
	.cfi_escape 0xf,0x3,0x76,0x58,0x6
	.cfi_escape 0x10,0xf,0x2,0x76,0x78
	.cfi_escape 0x10,0xe,0x2,0x76,0x70
	.cfi_escape 0x10,0xd,0x2,0x76,0x68
	.cfi_escape 0x10,0xc,0x2,0x76,0x60
	pushq	%rbx
	subq	$64, %rsp
	.cfi_escape 0x10,0x3,0x2,0x76,0x50
	.loc 1 65 8 view .LVU85
	cmpl	$1, %edi
	jg	.L30
.LVL26:
	.loc 1 72 5 is_stmt 1 view .LVU86
	.loc 1 72 17 is_stmt 0 view .LVU87
	movl	$10485760, %edi
.LVL27:
	.loc 1 76 5 view .LVU88
	leaq	-80(%rbp), %r15
	.loc 1 68 9 view .LVU89
	movl	$10485760, %r12d
	.loc 1 64 9 view .LVU90
	movl	$1000000, %r14d
	.loc 1 72 17 view .LVU91
	call	get_random_string
.LVL28:
	.loc 1 76 5 view .LVU92
	movq	%r15, %rdi
	xorl	%esi, %esi
	.loc 1 72 17 view .LVU93
	movq	%rax, %rbx
.LVL29:
	.loc 1 73 5 is_stmt 1 view .LVU94
	.loc 1 74 5 view .LVU95
	.loc 1 75 5 view .LVU96
	.loc 1 76 5 view .LVU97
	call	gettimeofday@PLT
.LVL30:
	.loc 1 77 5 view .LVU98
.LBB48:
	.loc 1 77 10 view .LVU99
	.loc 1 77 10 is_stmt 0 view .LVU100
.LBE48:
	.loc 1 76 5 view .LVU101
	movl	$1000000, %edi
.LVL31:
.L31:
	.loc 1 76 5 view .LVU102
	leal	(%r12,%r12), %esi
	vpxor	%xmm0, %xmm0, %xmm0
	movl	%edi, %edx
	leal	(%rsi,%r12), %r8d
	vpinsrd	$1, %r12d, %xmm0, %xmm0
	shrl	$3, %edx
	leal	(%r8,%r12), %eax
	leal	(%rax,%r12), %r9d
	leal	(%r9,%r12), %ecx
	movl	%ecx, -88(%rbp)
	vmovd	-88(%rbp), %xmm7
	leal	(%rcx,%r12), %r10d
	movl	%eax, -88(%rbp)
	vmovd	-88(%rbp), %xmm3
	leal	0(,%r12,8), %eax
	movl	%esi, -88(%rbp)
	vpinsrd	$1, %r10d, %xmm7, %xmm2
	vmovd	-88(%rbp), %xmm7
	vpinsrd	$1, %r9d, %xmm3, %xmm1
	movl	%eax, -88(%rbp)
	.loc 1 64 9 view .LVU103
	xorl	%eax, %eax
	vpinsrd	$1, %r8d, %xmm7, %xmm3
	vpunpcklqdq	%xmm2, %xmm1, %xmm1
	vpbroadcastd	-88(%rbp), %ymm2
	movl	%r12d, -88(%rbp)
	vpunpcklqdq	%xmm3, %xmm0, %xmm0
	vpbroadcastd	-88(%rbp), %ymm3
	vinserti128	$0x1, %xmm1, %ymm0, %ymm0
.LVL32:
	.p2align 4,,10
	.p2align 3
.L35:
.LBB49:
	.loc 1 78 9 is_stmt 1 view .LVU104
	.loc 1 78 9 is_stmt 0 view .LVU105
.LBE49:
	.loc 1 55 5 is_stmt 1 view .LVU106
	.loc 1 55 10 view .LVU107
	.loc 1 60 5 view .LVU108
.LBB50:
	.loc 1 79 9 view .LVU109
	addl	$1, %eax
	.loc 1 79 21 is_stmt 0 view .LVU110
	vpaddd	%ymm3, %ymm0, %ymm1
	.loc 1 79 21 view .LVU111
	vpaddd	%ymm0, %ymm2, %ymm0
	cmpl	%eax, %edx
	jne	.L35
	.loc 1 79 21 view .LVU112
	movl	%edi, %eax
	vextracti128	$0x1, %ymm1, %xmm1
	andl	$-8, %eax
	vpextrd	$3, %xmm1, %r13d
	movl	%eax, %edx
	imull	%r12d, %edx
	cmpl	%edi, %eax
	je	.L59
	vzeroupper
.LVL33:
.L34:
	.loc 1 78 9 is_stmt 1 view .LVU113
	.loc 1 78 9 is_stmt 0 view .LVU114
.LBE50:
	.loc 1 55 5 is_stmt 1 view .LVU115
	.loc 1 55 10 view .LVU116
	.loc 1 60 5 view .LVU117
.LBB51:
	.loc 1 79 9 view .LVU118
	.loc 1 79 21 is_stmt 0 view .LVU119
	leal	(%rdx,%r12), %r13d
.LVL34:
	.loc 1 77 33 view .LVU120
	leal	1(%rax), %edx
.LVL35:
	.loc 1 77 5 view .LVU121
	cmpl	%r14d, %edx
	jge	.L33
	.loc 1 78 9 is_stmt 1 view .LVU122
.LVL36:
	.loc 1 78 9 is_stmt 0 view .LVU123
.LBE51:
	.loc 1 55 5 is_stmt 1 view .LVU124
	.loc 1 55 10 view .LVU125
	.loc 1 60 5 view .LVU126
.LBB52:
	.loc 1 79 9 view .LVU127
	.loc 1 77 33 is_stmt 0 view .LVU128
	leal	2(%rax), %edx
.LVL37:
	.loc 1 79 21 view .LVU129
	addl	%r12d, %r13d
.LVL38:
	.loc 1 77 5 view .LVU130
	cmpl	%r14d, %edx
	jge	.L33
	.loc 1 78 9 is_stmt 1 view .LVU131
.LVL39:
	.loc 1 78 9 is_stmt 0 view .LVU132
.LBE52:
	.loc 1 55 5 is_stmt 1 view .LVU133
	.loc 1 55 10 view .LVU134
	.loc 1 60 5 view .LVU135
.LBB53:
	.loc 1 79 9 view .LVU136
	.loc 1 77 33 is_stmt 0 view .LVU137
	leal	3(%rax), %edx
.LVL40:
	.loc 1 79 21 view .LVU138
	addl	%r12d, %r13d
.LVL41:
	.loc 1 77 5 view .LVU139
	cmpl	%r14d, %edx
	jge	.L33
	.loc 1 78 9 is_stmt 1 view .LVU140
.LVL42:
	.loc 1 78 9 is_stmt 0 view .LVU141
.LBE53:
	.loc 1 55 5 is_stmt 1 view .LVU142
	.loc 1 55 10 view .LVU143
	.loc 1 60 5 view .LVU144
.LBB54:
	.loc 1 79 9 view .LVU145
	.loc 1 77 33 is_stmt 0 view .LVU146
	leal	4(%rax), %edx
.LVL43:
	.loc 1 79 21 view .LVU147
	addl	%r12d, %r13d
.LVL44:
	.loc 1 77 5 view .LVU148
	cmpl	%r14d, %edx
	jge	.L33
	.loc 1 78 9 is_stmt 1 view .LVU149
.LVL45:
	.loc 1 78 9 is_stmt 0 view .LVU150
.LBE54:
	.loc 1 55 5 is_stmt 1 view .LVU151
	.loc 1 55 10 view .LVU152
	.loc 1 60 5 view .LVU153
.LBB55:
	.loc 1 79 9 view .LVU154
	.loc 1 77 33 is_stmt 0 view .LVU155
	leal	5(%rax), %edx
.LVL46:
	.loc 1 79 21 view .LVU156
	addl	%r12d, %r13d
.LVL47:
	.loc 1 77 5 view .LVU157
	cmpl	%r14d, %edx
	jge	.L33
	.loc 1 78 9 is_stmt 1 view .LVU158
.LVL48:
	.loc 1 78 9 is_stmt 0 view .LVU159
.LBE55:
	.loc 1 55 5 is_stmt 1 view .LVU160
	.loc 1 55 10 view .LVU161
	.loc 1 60 5 view .LVU162
.LBB56:
	.loc 1 79 9 view .LVU163
	.loc 1 77 33 is_stmt 0 view .LVU164
	leal	6(%rax), %edx
.LVL49:
	.loc 1 79 21 view .LVU165
	addl	%r12d, %r13d
.LVL50:
	.loc 1 77 5 view .LVU166
	cmpl	%r14d, %edx
	jge	.L33
	.loc 1 78 9 is_stmt 1 view .LVU167
.LVL51:
	.loc 1 78 9 is_stmt 0 view .LVU168
.LBE56:
	.loc 1 55 5 is_stmt 1 view .LVU169
	.loc 1 55 10 view .LVU170
	.loc 1 60 5 view .LVU171
.LBB57:
	.loc 1 79 9 view .LVU172
	.loc 1 77 33 is_stmt 0 view .LVU173
	addl	$7, %eax
	.loc 1 79 21 view .LVU174
	addl	%r12d, %r13d
.LVL52:
	.loc 1 77 5 view .LVU175
	cmpl	%r14d, %eax
	jge	.L33
	.loc 1 78 9 is_stmt 1 view .LVU176
.LVL53:
	.loc 1 78 9 is_stmt 0 view .LVU177
.LBE57:
	.loc 1 55 5 is_stmt 1 view .LVU178
	.loc 1 55 10 view .LVU179
	.loc 1 60 5 view .LVU180
.LBB58:
	.loc 1 79 9 view .LVU181
	.loc 1 79 21 is_stmt 0 view .LVU182
	addl	%r12d, %r13d
.LVL54:
.L33:
	.loc 1 79 21 view .LVU183
.LBE58:
	.loc 1 81 5 is_stmt 1 view .LVU184
	leaq	-64(%rbp), %r8
	xorl	%esi, %esi
	movq	%r8, %rdi
	movq	%r8, -104(%rbp)
	call	gettimeofday@PLT
.LVL55:
	.loc 1 82 5 view .LVU185
	.loc 1 82 28 is_stmt 0 view .LVU186
	movq	-64(%rbp), %rcx
	subq	-80(%rbp), %rcx
	.loc 1 83 5 view .LVU187
	xorl	%eax, %eax
	.loc 1 82 50 view .LVU188
	imull	$1000000, %ecx, %ecx
	.loc 1 82 63 view .LVU189
	subl	-72(%rbp), %ecx
	.loc 1 82 50 view .LVU190
	addl	-56(%rbp), %ecx
.LVL56:
	.loc 1 83 5 is_stmt 1 view .LVU191
	movl	$1, %edx
	movl	%ecx, %esi
	leaq	.LC0(%rip), %rdi
	movl	%ecx, -92(%rbp)
	call	printf@PLT
.LVL57:
	.loc 1 84 5 view .LVU192
	.loc 1 84 37 is_stmt 0 view .LVU193
	vxorpd	%xmm6, %xmm6, %xmm6
	.loc 1 84 73 view .LVU194
	movl	-92(%rbp), %ecx
	.loc 1 84 56 view .LVU195
	vmovsd	.LC1(%rip), %xmm7
	.loc 1 84 37 view .LVU196
	vcvtsi2sd	%r13d, %xmm6, %xmm6
	.loc 1 84 5 view .LVU197
	leaq	.LC3(%rip), %rdi
	movl	$1, %eax
	.loc 1 84 56 view .LVU198
	vmulsd	%xmm6, %xmm7, %xmm0
	.loc 1 84 37 view .LVU199
	vmovsd	%xmm6, -88(%rbp)
	.loc 1 84 63 view .LVU200
	vmulsd	%xmm7, %xmm0, %xmm1
	.loc 1 84 73 view .LVU201
	vxorpd	%xmm0, %xmm0, %xmm0
	vcvtsi2sd	%ecx, %xmm0, %xmm0
	.loc 1 84 86 view .LVU202
	vdivsd	.LC2(%rip), %xmm0, %xmm0
	.loc 1 84 5 view .LVU203
	vdivsd	%xmm0, %xmm1, %xmm0
	call	printf@PLT
.LVL58:
	.loc 1 86 5 is_stmt 1 view .LVU204
	xorl	%esi, %esi
	movq	%r15, %rdi
	call	gettimeofday@PLT
.LVL59:
	.loc 1 87 5 view .LVU205
.LBB59:
	.loc 1 87 10 view .LVU206
	.loc 1 87 5 is_stmt 0 view .LVU207
	testl	%r14d, %r14d
	movq	-104(%rbp), %r8
	jle	.L48
	movslq	%r12d, %rdi
	.loc 1 87 14 view .LVU208
	xorl	%eax, %eax
	addq	%rbx, %rdi
.LVL60:
	.p2align 4,,10
	.p2align 3
.L44:
	.loc 1 88 9 is_stmt 1 view .LVU209
.LBB60:
.LBI60:
	.loc 1 12 6 view .LVU210
.LBB61:
	.loc 1 13 5 view .LVU211
	.loc 1 14 5 view .LVU212
	.loc 1 17 5 view .LVU213
	.loc 1 17 11 is_stmt 0 view .LVU214
	cmpl	$31, %r12d
	jle	.L49
.LBB62:
	.loc 1 18 9 is_stmt 1 view .LVU215
.LVL61:
.LBB63:
.LBI63:
	.loc 2 919 1 view .LVU216
.LBB64:
	.loc 2 921 3 view .LVU217
	.loc 2 921 3 is_stmt 0 view .LVU218
.LBE64:
.LBE63:
	.loc 1 19 9 is_stmt 1 view .LVU219
.LBB68:
.LBI68:
	.loc 3 433 1 view .LVU220
.LBB69:
	.loc 3 435 3 view .LVU221
.LBE69:
.LBE68:
.LBB73:
.LBB65:
	.loc 2 921 10 is_stmt 0 view .LVU222
	vmovdqu	(%rbx), %xmm5
	vinserti128	$0x1, 16(%rbx), %ymm5, %ymm0
.LBE65:
.LBE73:
.LBB74:
.LBB70:
	.loc 3 435 10 view .LVU223
	vpmovmskb	%ymm0, %r15d
.LVL62:
	.loc 3 435 10 view .LVU224
.LBE70:
.LBE74:
	.loc 1 20 9 is_stmt 1 view .LVU225
	.loc 1 20 12 is_stmt 0 view .LVU226
	testl	%r15d, %r15d
	jne	.L53
	movq	%rbx, %rcx
	jmp	.L40
.LVL63:
	.p2align 4,,10
	.p2align 3
.L41:
	.loc 1 18 9 is_stmt 1 view .LVU227
.LBB75:
	.loc 2 919 1 view .LVU228
.LBB66:
	.loc 2 921 3 view .LVU229
	.loc 2 921 3 is_stmt 0 view .LVU230
.LBE66:
.LBE75:
	.loc 1 19 9 is_stmt 1 view .LVU231
.LBB76:
	.loc 3 433 1 view .LVU232
.LBB71:
	.loc 3 435 3 view .LVU233
.LBE71:
.LBE76:
.LBB77:
.LBB67:
	.loc 2 921 10 is_stmt 0 view .LVU234
	vmovdqu	(%rcx), %xmm4
	vinserti128	$0x1, 16(%rcx), %ymm4, %ymm0
.LBE67:
.LBE77:
.LBB78:
.LBB72:
	.loc 3 435 10 view .LVU235
	vpmovmskb	%ymm0, %esi
.LVL64:
	.loc 3 435 10 view .LVU236
.LBE72:
.LBE78:
	.loc 1 20 9 is_stmt 1 view .LVU237
	.loc 1 20 12 is_stmt 0 view .LVU238
	testl	%esi, %esi
	jne	.L39
.LVL65:
.L40:
	.loc 1 23 9 is_stmt 1 view .LVU239
	.loc 1 23 11 is_stmt 0 view .LVU240
	addq	$32, %rcx
.LVL66:
	.loc 1 23 11 view .LVU241
.LBE62:
	.loc 1 17 16 view .LVU242
	movq	%rdi, %rsi
	subq	%rcx, %rsi
	.loc 1 17 11 view .LVU243
	cmpq	$31, %rsi
	jg	.L41
.LVL67:
.L38:
	.loc 1 27 11 view .LVU244
	cmpq	%rcx, %rdi
	ja	.L43
	.loc 1 27 11 view .LVU245
	jmp	.L51
	.p2align 4,,10
	.p2align 3
.L60:
	.loc 1 31 9 is_stmt 1 view .LVU246
	.loc 1 31 10 is_stmt 0 view .LVU247
	addq	$1, %rcx
.LVL68:
	.loc 1 27 11 view .LVU248
	cmpq	%rcx, %rdi
	je	.L51
.L43:
	.loc 1 28 9 is_stmt 1 view .LVU249
	.loc 1 28 12 is_stmt 0 view .LVU250
	cmpb	$0, (%rcx)
	jns	.L60
.LVL69:
.L53:
	.loc 1 28 12 view .LVU251
	xorl	%r15d, %r15d
.L39:
.LVL70:
	.loc 1 28 12 view .LVU252
.LBE61:
.LBE60:
	.loc 1 89 9 is_stmt 1 view .LVU253
	.loc 1 87 33 is_stmt 0 view .LVU254
	addl	$1, %eax
.LVL71:
	.loc 1 87 5 view .LVU255
	cmpl	%r14d, %eax
	jne	.L44
	leal	(%r12,%r13), %edx
	leal	-1(%rax), %r13d
	vxorpd	%xmm7, %xmm7, %xmm7
	imull	%r13d, %r12d
	leal	(%r12,%rdx), %r13d
	vcvtsi2sd	%r13d, %xmm7, %xmm7
	vmovsd	%xmm7, -88(%rbp)
	vzeroupper
.LVL72:
.L37:
	.loc 1 87 5 view .LVU256
.LBE59:
	.loc 1 91 5 is_stmt 1 view .LVU257
	movq	%r8, %rdi
	xorl	%esi, %esi
	call	gettimeofday@PLT
.LVL73:
	.loc 1 92 5 view .LVU258
	.loc 1 92 24 is_stmt 0 view .LVU259
	movq	-64(%rbp), %rbx
.LVL74:
	.loc 1 92 24 view .LVU260
	subq	-80(%rbp), %rbx
	.loc 1 93 5 view .LVU261
	movl	%r15d, %edx
	.loc 1 92 46 view .LVU262
	imull	$1000000, %ebx, %ebx
	.loc 1 92 59 view .LVU263
	subl	-72(%rbp), %ebx
	.loc 1 92 46 view .LVU264
	addl	-56(%rbp), %ebx
.LVL75:
	.loc 1 93 5 is_stmt 1 view .LVU265
	xorl	%eax, %eax
	movl	%ebx, %esi
	leaq	.LC4(%rip), %rdi
	call	printf@PLT
.LVL76:
	.loc 1 94 5 view .LVU266
	.loc 1 94 63 is_stmt 0 view .LVU267
	vmovsd	.LC1(%rip), %xmm7
	vmulsd	-88(%rbp), %xmm7, %xmm0
	.loc 1 94 5 view .LVU268
	leaq	.LC5(%rip), %rdi
	movl	$1, %eax
	.loc 1 94 70 view .LVU269
	vmulsd	%xmm7, %xmm0, %xmm1
	.loc 1 94 80 view .LVU270
	vxorpd	%xmm0, %xmm0, %xmm0
	vcvtsi2sd	%ebx, %xmm0, %xmm0
	.loc 1 94 93 view .LVU271
	vdivsd	.LC2(%rip), %xmm0, %xmm0
	.loc 1 94 5 view .LVU272
	vdivsd	%xmm0, %xmm1, %xmm0
	call	printf@PLT
.LVL77:
	.loc 1 95 5 is_stmt 1 view .LVU273
	.loc 1 96 1 is_stmt 0 view .LVU274
	addq	$64, %rsp
	xorl	%eax, %eax
	popq	%rbx
.LVL78:
	.loc 1 96 1 view .LVU275
	popq	%r10
	.cfi_remember_state
	.cfi_def_cfa 10, 0
	popq	%r12
	popq	%r13
	popq	%r14
	popq	%r15
	popq	%rbp
	leaq	-8(%r10), %rsp
	.cfi_def_cfa 7, 8
	ret
.LVL79:
	.p2align 4,,10
	.p2align 3
.L51:
	.cfi_restore_state
.LBB81:
.LBB80:
.LBB79:
	.loc 1 27 11 view .LVU276
	movl	$1, %r15d
	jmp	.L39
.LVL80:
.L49:
	.loc 1 17 11 view .LVU277
	movq	%rbx, %rcx
	jmp	.L38
.LVL81:
.L30:
	.loc 1 17 11 view .LVU278
	movl	%edi, %ebx
.LBE79:
.LBE80:
.LBE81:
.LBB82:
.LBB83:
	.file 4 "/usr/include/stdlib.h"
	.loc 4 363 16 view .LVU279
	movq	8(%rsi), %rdi
.LVL82:
	.loc 4 363 16 view .LVU280
	movq	%rsi, %r12
.LBE83:
.LBE82:
	.loc 1 66 9 is_stmt 1 view .LVU281
.LVL83:
.LBB85:
.LBI82:
	.loc 4 361 1 view .LVU282
.LBB84:
	.loc 4 363 3 view .LVU283
	.loc 4 363 16 is_stmt 0 view .LVU284
	movl	$10, %edx
	xorl	%esi, %esi
.LVL84:
	.loc 4 363 16 view .LVU285
	call	strtol@PLT
.LVL85:
	.loc 4 363 16 view .LVU286
	movq	%rax, %r13
	.loc 4 363 10 view .LVU287
	movl	%eax, %r14d
.LVL86:
	.loc 4 363 10 view .LVU288
.LBE84:
.LBE85:
	.loc 1 68 5 is_stmt 1 view .LVU289
	.loc 1 69 5 view .LVU290
	.loc 1 69 8 is_stmt 0 view .LVU291
	cmpl	$2, %ebx
	je	.L45
	.loc 1 70 9 is_stmt 1 view .LVU292
.LVL87:
.LBB86:
.LBI86:
	.loc 4 361 1 view .LVU293
.LBB87:
	.loc 4 363 3 view .LVU294
	.loc 4 363 16 is_stmt 0 view .LVU295
	movq	16(%r12), %rdi
	movl	$10, %edx
	xorl	%esi, %esi
	call	strtol@PLT
.LVL88:
	.loc 4 363 10 view .LVU296
	movl	%eax, %r12d
.LVL89:
.L32:
	.loc 4 363 10 view .LVU297
.LBE87:
.LBE86:
	.loc 1 72 5 is_stmt 1 view .LVU298
	.loc 1 72 17 is_stmt 0 view .LVU299
	movl	%r12d, %edi
	.loc 1 76 5 view .LVU300
	leaq	-80(%rbp), %r15
	.loc 1 72 17 view .LVU301
	call	get_random_string
.LVL90:
	.loc 1 76 5 view .LVU302
	xorl	%esi, %esi
	movq	%r15, %rdi
	.loc 1 72 17 view .LVU303
	movq	%rax, %rbx
.LVL91:
	.loc 1 73 5 is_stmt 1 view .LVU304
	.loc 1 74 5 view .LVU305
	.loc 1 75 5 view .LVU306
	.loc 1 76 5 view .LVU307
	call	gettimeofday@PLT
.LVL92:
	.loc 1 77 5 view .LVU308
.LBB88:
	.loc 1 77 10 view .LVU309
	.loc 1 77 5 is_stmt 0 view .LVU310
	testl	%r13d, %r13d
	jle	.L46
	movl	%r13d, %edi
	cmpl	$8, %r13d
	jg	.L31
.LVL93:
	.loc 1 77 14 view .LVU311
	xorl	%eax, %eax
.LBE88:
	.loc 1 75 9 view .LVU312
	xorl	%edx, %edx
	jmp	.L34
.LVL94:
.L46:
	.loc 1 75 9 view .LVU313
	xorl	%r13d, %r13d
.LVL95:
	.loc 1 75 9 view .LVU314
	jmp	.L33
.LVL96:
.L48:
.LBB89:
	.loc 1 87 5 view .LVU315
	movl	$1, %r15d
	jmp	.L37
.LVL97:
.L59:
	.loc 1 87 5 view .LVU316
	vzeroupper
	jmp	.L33
.LVL98:
.L45:
	.loc 1 87 5 view .LVU317
.LBE89:
	.loc 1 68 9 view .LVU318
	movl	$10485760, %r12d
.LVL99:
	.loc 1 68 9 view .LVU319
	jmp	.L32
	.cfi_endproc
.LFE5182:
	.size	main, .-main
	.section	.rodata.cst8,"aM",@progbits,8
	.align 8
.LC1:
	.long	0
	.long	1062207488
	.align 8
.LC2:
	.long	0
	.long	1093567616
	.text
.Letext0:
	.file 5 "/usr/lib/gcc/x86_64-linux-gnu/8/include/stddef.h"
	.file 6 "/usr/include/x86_64-linux-gnu/bits/types.h"
	.file 7 "/usr/include/x86_64-linux-gnu/bits/types/struct_FILE.h"
	.file 8 "/usr/include/x86_64-linux-gnu/bits/types/FILE.h"
	.file 9 "/usr/include/stdio.h"
	.file 10 "/usr/include/x86_64-linux-gnu/bits/sys_errlist.h"
	.file 11 "/usr/include/x86_64-linux-gnu/bits/types/struct_timeval.h"
	.file 12 "/usr/include/time.h"
	.file 13 "/usr/include/x86_64-linux-gnu/sys/time.h"
	.section	.note.GNU-stack,"",@progbits
